(dp0
S'ge_Q1_P39952'
p1
((S'9'
p2
S'97802177'
p3
S'97803037'
p4
S'-'
p5
tp6
ccopy_reg
_reconstructor
p7
(cBio.Seq
Seq
p8
c__builtin__
object
p9
Ntp10
Rp11
(dp12
S'alphabet'
p13
g7
(cBio.Alphabet
SingleLetterAlphabet
p14
g9
Ntp15
Rp16
sS'_data'
p17
S'CCTTTAAAGTATACAATTCAATGTGTTTTAGTATATTCAGAGTTGTGTAACCACGTACTATATGATGATTTTTGAAAATACTAACCTCTCCCCTCTCCCCTTTCCCTCTCCCTTTCCACAGTCTCCCTCTGATGCCAAGCCGAAGCTGGACTGTACTCCCGCCATCTCGGCTCACTGCAACCTCCCTGCCTGATTCTCCTGCCTCAGCCTGCCAAGTGCCTGGGATTGCAGGCGCGCGCCGCCACGCCTGACTGGTTTTTCTATTTTTTTGGTGGAGACGGGGTTTCGCTGTGTTGGCCGGGCTGGTCTCCAGCTCCTAACCGCGAGTGATCTGCCAGCCTCGGCCTCCCGAGGTGCCGGGATTGCAGAGGGAGTCTCGTTCACTCAATGCTCAATGTTGCCCAGGCTGGAGTGCAGTGGCGTGATCTCGGCTCGCTACAACCTCCACCTCCCAGCCGCCTGCCTTGGCCTCCCAAAGTGCCGAGATTGCAGCCTCTGCCCGGCCGCCACCCCTTCTGGGAAGTGAGGAGCGTCTCTGCCTGGCCGCCCATCGTCTGGGATGTGAGGAGCCCCTCTGCCCAGCTGCCCAGTCTGGGAAGTGAGGAGCGCCTCTTCCCGGCCGCCATCCCGTCTAGGAAGTGAGGAGCGTCTCTGCCCAGCCGCCCATCGTCTGAGATGTGGGGAGCGCCTCTGCCCCGCCGCCCCATCTGGGATGTGAGGAGCGCCTCTGCCCGGCCGCGACCCCGTCTGGGAGGTGAGGAGCGTCTCTGCCCGGCCGCCCCGTCTGAGAAGTGAGGAGCCCCTCCGCCCGGCAGCTGCCCAGTCTGAGAAGTGAGGAGCCCCTCCGCCCGGCAGCCGCCC'
p18
sbtp19
sS'ge_Q1_P28058'
p20
((S'13'
p21
S'58214864'
p22
S'58215690'
p23
g5
tp24
g7
(g8
g9
Ntp25
Rp26
(dp27
g13
g16
sg17
S'GTGTGGCAGAAGAAAACATTAAAAGTAGTTACTATATTTTGGATTCTCTATCTTAGACTGTAGAAAGACAGGGTCACCAGATTTCTTGTGGACAGGAACTACTTTGCATTTCCTTAAAGGCTTAAGATTTAGGAAGCAGCTATGGTACTGACTATAAAGCCATAATGTACCAGACTTGGTGGTGAGATGGACAGAGAAGTTGTTGAGTTGGCTGCAGTCTCCATCCTCAGCAAATATCGAGTGTTTTCATACCAGTTACTGTGCTATGTGGACTATGATCCCTGTGAGCAGATCACAATGAAGAAAAAGACAAATTACAATCCAGTGCGTTTCCCGGTATACTGAAGATTTCCAAATAAAATCCCAACTTACTGGTCTTTCACAATTTAGTAAAATGTGTTGAGTTGCCCTCACCTACCCTTCCTGCCTTATTTCCCACTGCTAGCCCCTAGTTACTCTCTAGTACAACTAATTGAATTATCTTTATCTGTCCTGCGGGTTACCCTCTTTGCATATGTTGTTCTCTCCCCTCCATATGTTGGTAATCCTATCTCCCCCTGGCTAACTTGTAACACTATAACTATCCTTCAAGACCCAAACCAAGTACATCCACTGAGTATTACTTTATTGGGCTCCTATCACAGTACAAGACAATGTACCAGCCCTGTGAGACTTCAAAGATTTAGAGTATATAATCTTAAAGACTAAAAACTACACGATCTGTTTCTCTTCTGAACTACAGTGCTTGTACTTCACTGATTTACTTTTTATAATATCTATTTAGTTCTCCTAGTTCACCAAAACCTCACTGGTTCAACAATTGCCTA'
p28
sbtp29
sS'ge_Q1_P28806'
p30
((S'17'
p31
S'40405060'
p32
S'40405851'
p33
S'+'
p34
tp35
g7
(g8
g9
Ntp36
Rp37
(dp38
g13
g16
sg17
S'GCTTTTAATGTCCAATATTTTGGCTCCATTTTGTTTTTTAAATCACCCAAGTTGACATTAATACCATTTATTTACAAACTGTTTAGATTTATCCATATGTGCCATATTCTTTGCTCACTATTCCGTCTTGCACCTCAGACCTTTTGTCCTGGATTATTTTCCTTCTTTCTGAAGTATATTTTTTAGAAGTTCCTTCATTGAACATCTGCTCATAGTTAACTCTAATTTTTTGTTGGATAACATCTTTATTTTTCCTTCTTTCTTGAAAAATAATTTCTCCAAGAAAAATAATTTTTCCAGGTTGATAATTATTTCCTCTCAGTATTTTAAAGACATAATTCTGCAGTCTCTGGCTTCATCATTGCTATTGAAAAAATCAGCTGTTGCTCTAATAAATGTTCCTTAGTGGGTAATCACTCTTTCTGGATGCCTTTAGGACTTTTTCATTAACTTGGATCTTACTCAGTTTGACTATTCTTGTGTACTTGTGAATTTCCTTTTAATTTATCATTCTTGGGATTAATTTTGCTTCCTGAATCAGAAGATTAATGGTTCCCATCAATTCTAGAAAATTGTCAAGCTCTGTTGCTTTAAAAATTTCTTCTCATTGTTTCTATTCTCTCTTCTGGAACTCAGCATTGACCTTCTCATCCTATTCTCCATGTCTCTTAATTTTTCTTTACTTTTAACCTCTGATTTTTTTTTCTGTGATGAATTCCAGATAATTTCTTTTCTTTTTTGAAATGTATTTATTTACTTGACAAATAAAAATTGTATATATTTATCATGTAC'
p39
sbtp40
sS'ge_Q1_P39210'
p41
((S'21'
p42
S'43951644'
p43
S'43952349'
p44
g5
tp45
g7
(g8
g9
Ntp46
Rp47
(dp48
g13
g16
sg17
S''
p49
sbtp50
sS'ge_Q1_P38501'
p51
((S'12'
p52
S'50646835'
p53
S'50647408'
p54
g34
tp55
g7
(g8
g9
Ntp56
Rp57
(dp58
g13
g16
sg17
S'ATTGTTGCATCATGCTACTAATAATTTATAGCTGAAATTCTATAGGTTTGGAAGATAAAGAAGGTACTTTTTTTTCAAACAACTTTAACATTAAACATTTTGAAAGATTATTAGAAACTTTTGCATGTTGTAAAACTTCAAGTGATTCAAAACATATTTCAAGTAATAAATCTTAAACTGAGGTGTCAAAATTGTGGCTAATGAATCTATAATTTTATTAACATTAACTGTGGAAATCGTTATACAATAGATTTATTCAGAAATCTTCAAATGATTAAATATCAATAAAATAAATTTTGCTAGATTTTGTATAATATATTTACATTTATATACTGCATATTAACAAATGACTATATATGTGTGAATGTACAATTAGAATTGAAAGGGAAATAAAATGACTCTACTCATTTGAAAAGAGTCTTAAATTTTTAATTTCAAAATGCAAATTAAAATTATGATGACCTAGTTTTTACTTATGTAAATAGCAAAGATAAAAATGATAAAGAGTTAAGGACACTTCAAGTAGATGAAGAAATGAAAAAAATAGGTGTTGCACGAATTCCAGGTGGCAGTA'
p59
sbtp60
sS'ge_Q1_P12398'
p61
((S'5'
p62
S'16754500'
p63
S'16755213'
p64
g34
tp65
g7
(g8
g9
Ntp66
Rp67
(dp68
g13
g16
sg17
S'AACTCAGAATTAGAATAGGACTTGGAGTCAGCGTGAAGTATGGGAGCCCTCCGGCAGAAGCCAGGTGGCTGTTTCCTTTCATCCGGCCCCTCTCAACCCTAGACAGGCCCCCAGTGAGGGTCTCTGTCCCAGCACTCTCCTGTGGCCTCAGGCAGCAGGGCGTCCACTGGCGGGACAGCTGTGGGCTTTGTGGACAGCCCGCCCAAGGGGGCCGGGGCTGGTGGGTGAGGTCATCGGCGTCACAGCGGTCAGGAATCTGTGATGTTGAGGGTTTTGGGGGAGTTTGCATGGGGTCGTTGGACGCCGCTTGCTCTGTTGACTGTGAGCCACTCATGGACCACCATGAGAACCTGTTTTGCTGCTGGAAAGTCAAGGGTGCGTTCCCCGGGTGGCCGCCTAAGTTGGAGTCCTCCATGTTCCACATCTATTCCAGCACTAGGGTGGTTTCAAACACAGGATCTCAGGAGCCCTCAGAACTCAAGAGATGAGAAATACGCACCCCTCACTGTCTTTAGCAGCCTGGTGGTGACTGAACCTCTCCCAGGAAACTCCAGCAGAAATCTGGAGGGGACTTGAGGGCCACTCCCAGGTCTAACTCAGAGGTGGTCAGTTACTCACCTTCCTAGTTGAAGACCATGTTCCAGGTGTTTGGTCAGTTTTCGTTTTAGTCCATTTCCAGCATTTCCAGTCCTCAAAGCCCTTGGCCCGGGTGGT'
p69
sbtp70
sS'ge_Q1_P29975'
p71
((S'22'
p72
S'42241207'
p73
S'42241958'
p74
g5
tp75
g7
(g8
g9
Ntp76
Rp77
(dp78
g13
g16
sg17
S'TCTTGGTCCAAAAGCCTAATGAAAACAACGAATTGTCTGGCCTCCCCTTCCAACACACACCTAACATATAATGGTGGAAATAAACATTCTCATTTGGAAAGGGAAAGAAAGAGACACACAGCAGTTACTGGATGTAGCAGTTCCAAAACTGCTCTGTGTGAGTGGAGGCCCCTATCCTGAGAGTGAAGAACATTCTGAATCAGGCCCTGATTTTCTCTCTGGAAGAAACTCTCTTGTCCATTGTTCTTGGTGGTCCCTGGCCTGCCCTCTAGCAGCTCTCCTTTTTCTATTCCGCTTCTTGCCATAACTAAAGTAGTTATTGAAGAACATATATGCCCTCCTTGAGTCTATCTAGTGTTGTCTGCTGCCCTTAGAAGACTGGGGACCCAAAGATGGTTTATTTCATTAAAAAAAAATTTGATTGATTAAATAAAGGTTGTATATACTCAAGGTCCTTGGAGGATTTTAAGGCTTGAATAGTCGTCTTATTTTATTCCATTTGTTATTGCCCAGACTTGTGGCTTCTCTAGCAGTACGAGACTTTTTTTTTTTTTTTTTTGAGACAGGGTCTCACTCTCTTGCCCAGACTGGAGTGCAGTGGCCTGATCTGGGCTCACCGCAACCTCCACCTCCCAGGCTCAAGCGATTCTCCTGTCTCAGCCTCCCGAGTAGGTAGGATTACAGGCTCGTGCCACTACTTCTAGGCTAATTTTTGTATTTTTAGTAGAGACAGGGTTTCACCATGTTAGCTA'
p79
sbtp80
sS'ge_Q1_P10555'
p81
((S'12'
p82
S'57572993'
p83
S'57573393'
p84
g5
tp85
g7
(g8
g9
Ntp86
Rp87
(dp88
g13
g16
sg17
S'TCAACCTGTATATTTTAAATAGACACATTTTACTATGTATAAATTGACCTCCAAATATTTTTTCAACTTTTATTTTAGGTATGTGGGGTACATGTGCAGGTTTGTTGTGTGGGTAAATTGCATGTCATTGGAGTTTGGTGTATGAATGATCCCATTACCCAGACAGTGAGCATAATGCCCAACAGTTGTTATTTAAAAAAAAAAAAAAATCTTTGCCATTCCATTTAATGCTACAGCCTTAATTTTAGAAATCACTTTTTAATTTTTATGTGGCCTTTGGTTTTATAATTTCAGCATGTACAGCTTCAGATACAGTTCAAAAGTCACATTACTTAAACATTGAAGGTAGTAAGGCTAGAAGATCAAGTATGAAAATCCTGGGGAAAAAAAAAACATATCCA'
p89
sbtp90
sS'ge_Q1_P29277'
p91
((S'2'
p92
S'28536300'
p93
S'28537286'
p94
g5
tp95
g7
(g8
g9
Ntp96
Rp97
(dp98
g13
g16
sg17
S'TTTATAATTTATCAAGATCTGAGTACAAAGACCGTGTGTTTTGTTTTTGTTTATATTAAAAAGGTCCCTCGGAGAATAAATCAATTAGTAAATATCTTTCACAGTGCTTGGCAAGTAGTAGGTACTCAATAAGTGTTCATTGAATTAAAGTATTTATTGAGTACCTTGTAAGTACTGTGACAGGCATTGATGGTAGCTTAGCAGACACTGCATGTCCCTTGGCACTCACCATGTCTGAGTACATGGATTGCTCTTGTTAAAAGCATCTAAAACTCTCTGCTTGAGGGAGATGGTTAGTCCGTACAAGTGATAGGCTGGAGGTGCTTGGAAGTTAGTGTTGCTGGGAGCAACTTTCTACCAATGATGGATGGGAATGGCTGGTTAAATATTCTAGCTTCTTTGCCCCTCAGGTAGGAAAGCTCTACGTTGTCTCACAGAGGTCCTGAGTAGGACTGAGCTGCAGTTGCCCACAGCACTAACCTGCTCATTAATACATCTTTCTACCCATCCATTTTTCATTTTTCCACTCTCCTGCCAATGCTTCTTGGGATCATCTCCTAAATCAGCTCTTTTTGCTTGCAAAGTTGTCTCATGACTAGCTTGTAGAGGAACACAGCTTATGACCGTAGCTCTCCTAATAGCATTCTCCCTTTCTTTCTGTCTAACAGATCCCAAATACTTTGGAGAGAGGCAATAAGCCTATCCCCAGGATATGAATTATTATTGGGATACACCAAACATGACAATCTCATTTCAGTTTCTACAGCCCAGTCTTGCAGATATGATCACTCTAGTCAATGAGACGTAAGCATAAAACTAATGAAAATTTTCTGAAGAAGCTATTGCTATCATGACAAAAAGTTATAGATGTGACTGCCTTCTTTCTGCTTTAAATGTAATCATGGTACCTGGAAAGAGCTGCAGCAAAGAGATCATAGCAAAAATTTTGCTGGCTGCAACATCATTGACCCTCTGAGCCAACAACAA'
p99
sbtp100
s.